; Function Attrs: mustprogress uwtable
define hidden noundef zeroext i1 @_ZNK4cvc58internal6theory11quantifiers15FirstOrderModel20isQuantifierAssertedENS0_12NodeTemplateILb0EEE(ptr noundef nonnull readonly align 8 captures(none) dereferenceable(664) %0, ptr noundef readonly captures(none) %1) local_unnamed_addr #3 align 2 personality ptr @__gxx_personality_v0 {
  %3 = alloca %"class.cvc5::internal::NodeTemplate", align 8
  %4 = alloca %"class.cvc5::internal::NodeTemplate.413", align 8
  call void @llvm.lifetime.start.p0(i64 8, ptr nonnull %3) #28
  %5 = getelementptr inbounds nuw i8, ptr %0, i64 24
  %6 = load ptr, ptr %5, align 8, !tbaa !267
  %7 = tail call noundef nonnull align 8 dereferenceable(8) ptr @_ZN4cvc58internal6theory11TheoryState12getValuationEv(ptr noundef nonnull align 8 dereferenceable(160) %6)
  %8 = load ptr, ptr %1, align 8, !tbaa !89
  store ptr %8, ptr %4, align 8, !tbaa !89
  call void @_ZNK4cvc58internal6theory9Valuation11getSatValueENS0_12NodeTemplateILb0EEE(ptr dead_on_unwind nonnull writable sret(%"class.cvc5::internal::NodeTemplate") align 8 %3, ptr noundef nonnull align 8 dereferenceable(8) %7, ptr noundef nonnull %4)
  %9 = invoke noundef zeroext i1 @_ZNK4cvc58internal12NodeTemplateILb1EE7isConstEv(ptr noundef nonnull align 8 dereferenceable(8) %3)
          to label %10 unwind label %31

10:                                               ; preds = %2
  br i1 %9, label %11, label %16

11:                                               ; preds = %10
  %12 = load ptr, ptr %3, align 8, !tbaa !73
  %13 = invoke noundef nonnull align 1 dereferenceable(1) ptr @_ZNK4cvc58internal4expr9NodeValue8getConstIbEERKT_v(ptr noundef nonnull align 8 dereferenceable(24) %12)
          to label %_ZNK4cvc58internal12NodeTemplateILb1EE8getConstIbEERKT_v.exit unwind label %31

_ZNK4cvc58internal12NodeTemplateILb1EE8getConstIbEERKT_v.exit: ; preds = %11
  %14 = load i8, ptr %13, align 1, !tbaa !166, !range !85, !noundef !86
  %15 = trunc nuw i8 %14 to i1
  br label %16

16:                                               ; preds = %_ZNK4cvc58internal12NodeTemplateILb1EE8getConstIbEERKT_v.exit, %10
  %17 = phi i1 [ false, %10 ], [ %15, %_ZNK4cvc58internal12NodeTemplateILb1EE8getConstIbEERKT_v.exit ]
  %18 = load ptr, ptr %3, align 8, !tbaa !73
  %19 = load i64, ptr %18, align 8
  %20 = and i64 %19, 1152920405095219200
  %.not.i.i = icmp eq i64 %20, 1152920405095219200
  br i1 %.not.i.i, label %_ZN4cvc58internal12NodeTemplateILb1EED2Ev.exit, label %21, !prof !81

21:                                               ; preds = %16
  %22 = add i64 %19, 1152920405095219200
  %23 = and i64 %22, 1152920405095219200
  %24 = and i64 %19, -1152920405095219201
  %25 = or disjoint i64 %23, %24
  store i64 %25, ptr %18, align 8
  %26 = icmp eq i64 %23, 0
  br i1 %26, label %27, label %_ZN4cvc58internal12NodeTemplateILb1EED2Ev.exit, !prof !81

27:                                               ; preds = %21
  invoke void @_ZN4cvc58internal4expr9NodeValue15markForDeletionEv(ptr noundef nonnull align 8 dereferenceable(24) %18)
          to label %_ZN4cvc58internal12NodeTemplateILb1EED2Ev.exit unwind label %28

28:                                               ; preds = %27
  %29 = landingpad { ptr, i32 }
          catch ptr null
  %30 = extractvalue { ptr, i32 } %29, 0
  call void @__clang_call_terminate(ptr %30) #30
  unreachable

_ZN4cvc58internal12NodeTemplateILb1EED2Ev.exit:   ; preds = %16, %21, %27
  call void @llvm.lifetime.end.p0(i64 8, ptr nonnull %3) #28
  ret i1 %17

31:                                               ; preds = %11, %2
  %32 = landingpad { ptr, i32 }
          cleanup
  call void @_ZN4cvc58internal12NodeTemplateILb1EED2Ev(ptr noundef nonnull align 8 dereferenceable(8) %3) #28
  call void @llvm.lifetime.end.p0(i64 8, ptr nonnull %3) #28
  resume { ptr, i32 } %32
}